; Function Attrs: mustprogress nounwind uwtable
define internal void @_ZNSt8__detail9__variant17__gen_vtable_implINS0_12_Multi_arrayIPFNS0_21__deduce_visit_resultIvEEOZN8WasmEdge6Plugin12_GLOBAL__N_118CAPIPluginRegister17addOptionsWrapperEPKNS6_6Plugin16PluginDescriptorERNS5_2PO14ArgumentParserEEUlRT_E_RSt7variantIJNSD_6OptionIPNSD_6ToggleENSD_6ParserIbEEEENSL_IPaNSO_IaEEEENSL_IPsNSO_IsEEEENSL_IPiNSO_IiEEEENSL_IPlNSO_IlEEEENSL_IPhNSO_IhEEEENSL_IPtNSO_ItEEEENSL_IPjNSO_IjEEEENSL_IPmNSO_ImEEEENSL_IPfNSO_IfEEEENSL_IPdNSO_IdEEEENSL_IP15WasmEdge_StringNSO_IS1L_EEEEEEEJEEESt16integer_sequenceImJLm5EEEE14__visit_invokeESJ_S1Q_(ptr nocapture noundef nonnull readonly align 8 dereferenceable(16) %0, ptr noundef nonnull align 8 dereferenceable(57) %1) #0 align 2 personality ptr @__gxx_personality_v0 {
  %.val = load ptr, ptr %0, align 8
  %3 = getelementptr inbounds i8, ptr %0, i64 8
  %.val2 = load ptr, ptr %3, align 8
  %.val.val = load ptr, ptr %.val, align 8
  %.val2.val = load ptr, ptr %.val2, align 8
  %4 = getelementptr i8, ptr %.val2, i64 24
  %.val2.val3 = load i64, ptr %4, align 8
  %.val.val.val = load ptr, ptr %.val.val, align 8
  %5 = tail call noundef i64 @strlen(ptr noundef nonnull dereferenceable(1) %.val.val.val) #25
  %6 = getelementptr inbounds %"class.WasmEdge::PO::ArgumentParser::SubCommandDescriptor", ptr %.val2.val, i64 %.val2.val3
  tail call void @_ZN8WasmEdge2PO14ArgumentParser20SubCommandDescriptor10add_optionINS0_6OptionIPhNS0_6ParserIhEEEEEEvSt17basic_string_viewIcSt11char_traitsIcEERT_(ptr noundef nonnull align 8 dereferenceable(328) %6, i64 %5, ptr %.val.val.val, ptr noundef nonnull align 8 dereferenceable(49) %1) #25
  ret void
}